(dp1
S'output'
p2
S"<type 'exceptions.TypeError'> cannot concatenate 'str' and 'FORM' objects"
p3
sS'layer'
p4
S'/home/ddb/Developing/web2py/applications/ticker/controllers/default.py'
p5
sS'code'
p6
S'import urllib\nimport re\nfrom time import sleep\n\n# -*- coding: utf-8 -*-\n# this file is released under public domain and you can use without limitations\n\n#########################################################################\n## This is a sample controller\n## - index is the default action of any application\n## - user is required for authentication and authorization\n## - download is for downloading files uploaded in the db (does streaming)\n#########################################################################\n\ndef index():\n    """\n    example action using the internationalization operator T and flash\n    rendered by views/default/index.html or views/generic.html\n\n    if you need a simple wiki simply replace the two lines below with:\n    return auth.wiki()\n    """\n    """\n    #response.flash = T("Hello World")\n    #return "Hi this is workings"\n    if not session.counter:\n        session.counter = 1\n    else:\n        session.counter += 1\n    return dict(message="Hello there", counter=session.counter)\n    """\n    ticker = FORM(INPUT(_name=\'usersTicker\'))\n    #ticker = \'emes\'\n    #testfile = urllib.URLopener()\n    #testfile.retrieve("http://ichart.finance.yahoo.com/table.csv?s=emes", "emes_hist.csv")\n\n    i = 0\n    while i < 10:  # while market is open\n        htmlfile = urllib.urlopen("http://finance.yahoo.com/q?s="+ticker)\n        htmltext = htmlfile.read()\n        regex = \'<span id="yfs_l84_\'+ticker+\'">(.+?)</span>\'\n        pattern = re.compile(regex)\n        price = re.findall(pattern,htmltext)\n        priceFloat = float(price[0])\n        #print \'Current price of %s is %f\' % (ticker, priceFloat)\n        i+=1\n        sleep(2)\n        return dict(priceinf=price[0], ticker = ticker)\n        sleep(2)\n        return dict(priceinf=price[0], ticker = ticker)\n\n\ndef first():\n    return dict()\n\ndef second():\n    return dict()\n\n\n\ndef user():\n    """\n    exposes:\n    http://..../[app]/default/user/login\n    http://..../[app]/default/user/logout\n    http://..../[app]/default/user/register\n    http://..../[app]/default/user/profile\n    http://..../[app]/default/user/retrieve_password\n    http://..../[app]/default/user/change_password\n    http://..../[app]/default/user/bulk_register\n    use @auth.requires_login()\n        @auth.requires_membership(\'group name\')\n        @auth.requires_permission(\'read\',\'table name\',record_id)\n    to decorate functions that need access control\n    also notice there is http://..../[app]/appadmin/manage/auth to allow administrator to manage users\n    """\n    return dict(form=auth())\n\n\n@cache.action()\ndef download():\n    """\n    allows downloading of uploaded files\n    http://..../[app]/default/download/[filename]\n    """\n    return response.download(request, db)\n\n\ndef call():\n    """\n    exposes services. for example:\n    http://..../[app]/default/call/jsonrpc\n    decorate with @services.jsonrpc the functions to expose\n    supports xml, json, xmlrpc, jsonrpc, amfrpc, rss, csv\n    """\n    return service()\n\nresponse._vars=response._caller(index)\n'
p7
sS'snapshot'
p8
(dp9
sS'traceback'
p10
S'Traceback (most recent call last):\n  File "/home/ddb/Developing/web2py/gluon/restricted.py", line 227, in restricted\n    exec ccode in environment\n  File "/home/ddb/Developing/web2py/applications/ticker/controllers/default.py", line 98, in <module>\n  File "/home/ddb/Developing/web2py/gluon/globals.py", line 412, in <lambda>\n    self._caller = lambda f: f()\n  File "/home/ddb/Developing/web2py/applications/ticker/controllers/default.py", line 39, in index\n    htmlfile = urllib.urlopen("http://finance.yahoo.com/q?s="+ticker)\nTypeError: cannot concatenate \'str\' and \'FORM\' objects\n'
p11
s.